; Function Attrs: mustprogress uwtable
define hidden void @_Z11mk_distinctRK10ref_vectorI4expr11ast_managerE(ptr dead_on_unwind noalias writable writeonly sret(%class.obj_ref) align 8 captures(none) initializes((0, 16)) %0, ptr noundef nonnull readonly align 8 captures(none) dereferenceable(16) %1) local_unnamed_addr #3 {
  %3 = load ptr, ptr %1, align 8, !tbaa !131
  %4 = getelementptr inbounds nuw i8, ptr %1, i64 8
  %5 = load ptr, ptr %4, align 8, !tbaa !10
  %6 = icmp eq ptr %5, null
  br i1 %6, label %_ZNK15ref_vector_coreI4expr19ref_manager_wrapperIS0_11ast_managerEE4sizeEv.exit.thread, label %_ZNK15ref_vector_coreI4expr19ref_manager_wrapperIS0_11ast_managerEE4sizeEv.exit

_ZNK15ref_vector_coreI4expr19ref_manager_wrapperIS0_11ast_managerEE4sizeEv.exit: ; preds = %2
  %7 = getelementptr inbounds i8, ptr %5, i64 -4
  %8 = load i32, ptr %7, align 4, !tbaa !16
  switch i32 %8, label %17 [
    i32 0, label %_ZNK15ref_vector_coreI4expr19ref_manager_wrapperIS0_11ast_managerEE4sizeEv.exit.thread
    i32 1, label %_ZNK15ref_vector_coreI4expr19ref_manager_wrapperIS0_11ast_managerEE4sizeEv.exit.thread
    i32 2, label %11
  ]

_ZNK15ref_vector_coreI4expr19ref_manager_wrapperIS0_11ast_managerEE4sizeEv.exit.thread: ; preds = %2, %_ZNK15ref_vector_coreI4expr19ref_manager_wrapperIS0_11ast_managerEE4sizeEv.exit, %_ZNK15ref_vector_coreI4expr19ref_manager_wrapperIS0_11ast_managerEE4sizeEv.exit
  %9 = getelementptr inbounds nuw i8, ptr %3, i64 856
  %10 = load ptr, ptr %9, align 8, !tbaa !60
  br label %_Z11mk_distinctR11ast_managerjPKP4expr.exit

11:                                               ; preds = %_ZNK15ref_vector_coreI4expr19ref_manager_wrapperIS0_11ast_managerEE4sizeEv.exit
  %12 = load ptr, ptr %5, align 8, !tbaa !3
  %13 = getelementptr inbounds nuw i8, ptr %5, i64 8
  %14 = load ptr, ptr %13, align 8, !tbaa !3
  %15 = tail call noundef ptr @_ZN11ast_manager6mk_appEiiP4exprS1_(ptr noundef nonnull align 8 dereferenceable(976) %3, i32 noundef 0, i32 noundef 2, ptr noundef %12, ptr noundef %14)
  %16 = tail call noundef ptr @_ZN11ast_manager6mk_appEiiP4expr(ptr noundef nonnull align 8 dereferenceable(976) %3, i32 noundef 0, i32 noundef 8, ptr noundef %15)
  br label %_Z11mk_distinctR11ast_managerjPKP4expr.exit

17:                                               ; preds = %_ZNK15ref_vector_coreI4expr19ref_manager_wrapperIS0_11ast_managerEE4sizeEv.exit
  %18 = tail call noundef ptr @_ZN11ast_manager11mk_distinctEjPKP4expr(ptr noundef nonnull align 8 dereferenceable(976) %3, i32 noundef %8, ptr noundef nonnull %5)
  br label %_Z11mk_distinctR11ast_managerjPKP4expr.exit

_Z11mk_distinctR11ast_managerjPKP4expr.exit:      ; preds = %_ZNK15ref_vector_coreI4expr19ref_manager_wrapperIS0_11ast_managerEE4sizeEv.exit.thread, %11, %17
  %.0.i = phi ptr [ %18, %17 ], [ %16, %11 ], [ %10, %_ZNK15ref_vector_coreI4expr19ref_manager_wrapperIS0_11ast_managerEE4sizeEv.exit.thread ]
  store ptr %.0.i, ptr %0, align 8, !tbaa !125
  %19 = getelementptr inbounds nuw i8, ptr %0, i64 8
  store ptr %3, ptr %19, align 8, !tbaa !126
  %.not.i.i = icmp eq ptr %.0.i, null
  br i1 %.not.i.i, label %_ZN7obj_refI4expr11ast_managerEC2EPS0_RS1_.exit, label %_ZN11ast_manager7inc_refEP3ast.exit.i.i

_ZN11ast_manager7inc_refEP3ast.exit.i.i:          ; preds = %_Z11mk_distinctR11ast_managerjPKP4expr.exit
  %20 = getelementptr inbounds nuw i8, ptr %.0.i, i64 8
  %21 = load i32, ptr %20, align 4, !tbaa !127
  %22 = add i32 %21, 1
  store i32 %22, ptr %20, align 4, !tbaa !127
  br label %_ZN7obj_refI4expr11ast_managerEC2EPS0_RS1_.exit

_ZN7obj_refI4expr11ast_managerEC2EPS0_RS1_.exit:  ; preds = %_Z11mk_distinctR11ast_managerjPKP4expr.exit, %_ZN11ast_manager7inc_refEP3ast.exit.i.i
  ret void
}